; Function Attrs: mustprogress nounwind uwtable
define hidden void @_ZN9StubQueue6commitEi(ptr nocapture noundef nonnull align 8 dereferenceable(48) %0, i32 noundef %1) local_unnamed_addr #0 align 2 {
  %3 = getelementptr inbounds i8, ptr %0, i64 28
  %4 = load i32, ptr %3, align 4
  %5 = getelementptr inbounds i8, ptr %0, i64 8
  %6 = load ptr, ptr %5, align 8
  %7 = sext i32 %4 to i64
  %8 = getelementptr inbounds i8, ptr %6, i64 %7
  %9 = load ptr, ptr %0, align 8
  %10 = load ptr, ptr %9, align 8
  %11 = getelementptr inbounds i8, ptr %10, i64 40
  %12 = load ptr, ptr %11, align 8
  %13 = tail call noundef ptr %12(ptr noundef nonnull align 8 dereferenceable(8) %9, ptr noundef %8) #6
  %14 = sext i32 %1 to i64
  %15 = getelementptr inbounds i8, ptr %13, i64 %14
  %16 = load ptr, ptr %0, align 8
  %17 = load ptr, ptr %16, align 8
  %18 = getelementptr inbounds i8, ptr %17, i64 24
  %19 = load ptr, ptr %18, align 8
  %20 = tail call noundef i32 %19(ptr noundef nonnull align 8 dereferenceable(8) %16) #6
  %21 = ptrtoint ptr %15 to i64
  %22 = add nsw i32 %20, -1
  %23 = zext i32 %22 to i64
  %24 = add i64 %23, %21
  %25 = sub i32 0, %20
  %26 = zext i32 %25 to i64
  %27 = and i64 %24, %26
  %28 = ptrtoint ptr %8 to i64
  %29 = sub i64 %27, %28
  %30 = trunc i64 %29 to i32
  %31 = load ptr, ptr %0, align 8
  %32 = load ptr, ptr %31, align 8
  %33 = load ptr, ptr %32, align 8
  tail call void %33(ptr noundef nonnull align 8 dereferenceable(8) %31, ptr noundef %8, i32 noundef %30) #6
  %34 = load <2 x i32>, ptr %3, align 4
  %35 = insertelement <2 x i32> <i32 poison, i32 1>, i32 %30, i64 0
  %36 = add nsw <2 x i32> %34, %35
  store <2 x i32> %36, ptr %3, align 4
  %37 = getelementptr inbounds i8, ptr %0, i64 40
  %38 = load ptr, ptr %37, align 8
  %.not = icmp eq ptr %38, null
  br i1 %.not, label %40, label %39

39:                                               ; preds = %2
  tail call void @_ZN5Mutex6unlockEv(ptr noundef nonnull align 8 dereferenceable(104) %38) #6
  br label %40

40:                                               ; preds = %39, %2
  ret void
}